target datalayout = "e-m:e-p270:32:32-p271:32:32-p272:64:64-i64:64-i128:128-f80:128-n8:16:32:64-S128"
target triple = "x86_64-pc-linux-gnu"

%struct.llama_sampler = type { ptr, ptr }
%struct.llama_sampler_grammar = type { ptr, %"class.std::__cxx11::basic_string", %"class.std::__cxx11::basic_string", ptr }
%"class.std::__cxx11::basic_string" = type { %"struct.std::__cxx11::basic_string<char>::_Alloc_hider", i64, %union.anon }
%"struct.std::__cxx11::basic_string<char>::_Alloc_hider" = type { ptr }
%union.anon = type { i64, [8 x i8] }

; Function Attrs: mustprogress uwtable
define internal void @_ZL27llama_sampler_grammar_applyP13llama_samplerP22llama_token_data_array(ptr noundef %0, ptr noundef %1) #0 {
  %3 = alloca ptr, align 8
  %4 = alloca ptr, align 8
  %5 = alloca ptr, align 8
  store ptr %0, ptr %3, align 8, !tbaa !12
  store ptr %1, ptr %4, align 8, !tbaa !19
  call void @llvm.lifetime.start.p0(i64 8, ptr %5) #14
  %6 = load ptr, ptr %3, align 8, !tbaa !12
  %7 = getelementptr inbounds nuw %struct.llama_sampler, ptr %6, i32 0, i32 1
  %8 = load ptr, ptr %7, align 8, !tbaa !11
  store ptr %8, ptr %5, align 8, !tbaa !137
  %9 = load ptr, ptr %5, align 8, !tbaa !137
  %10 = getelementptr inbounds nuw %struct.llama_sampler_grammar, ptr %9, i32 0, i32 3
  %11 = load ptr, ptr %10, align 8, !tbaa !145
  %12 = icmp ne ptr %11, null
  br i1 %12, label %13, label %18

13:                                               ; preds = %2
  %14 = load ptr, ptr %5, align 8, !tbaa !137
  %15 = getelementptr inbounds nuw %struct.llama_sampler_grammar, ptr %14, i32 0, i32 3
  %16 = load ptr, ptr %15, align 8, !tbaa !145
  %17 = load ptr, ptr %4, align 8, !tbaa !19
  call void @_Z24llama_grammar_apply_implRK13llama_grammarP22llama_token_data_array(ptr noundef nonnull align 8 dereferenceable(152) %16, ptr noundef %17)
  br label %18

18:                                               ; preds = %13, %2
  call void @llvm.lifetime.end.p0(i64 8, ptr %5) #14
  ret void
}