; Function Attrs: mustprogress uwtable
define internal void @_ZL27llama_sampler_grammar_applyP13llama_samplerP22llama_token_data_array(ptr noundef readonly captures(none) %0, ptr noundef %1) #0 {
  %3 = getelementptr inbounds nuw i8, ptr %0, i64 8
  %4 = load ptr, ptr %3, align 8, !tbaa !9
  %5 = getelementptr inbounds nuw i8, ptr %4, i64 72
  %6 = load ptr, ptr %5, align 8, !tbaa !100
  %.not = icmp eq ptr %6, null
  br i1 %.not, label %8, label %7

7:                                                ; preds = %2
  tail call void @_Z24llama_grammar_apply_implRK13llama_grammarP22llama_token_data_array(ptr noundef nonnull align 8 dereferenceable(152) %6, ptr noundef %1)
  br label %8

8:                                                ; preds = %7, %2
  ret void
}